target datalayout = "e-m:e-p270:32:32-p271:32:32-p272:64:64-i64:64-i128:128-f80:128-n8:16:32:64-S128"
target triple = "x86_64-pc-linux-gnu"

%struct.AVFilterPad = type { ptr, i32, i32, %union.anon, ptr, ptr, ptr }
%union.anon = type { ptr }
%struct.AVFilterContext = type { ptr, ptr, ptr, ptr, ptr, i32, ptr, ptr, i32, ptr, ptr, i32, i32, ptr, ptr, ptr, ptr, i32, ptr, i32, i32 }
%struct.BM3DContext = type { ptr, float, i32, i32, i32, i32, i32, float, float, i32, i32, i32, i32, i32, i32, [4 x i32], [4 x i32], i32, i32, [32 x %struct.SliceContext], %struct.FFFrameSync, i32, ptr, ptr, ptr, ptr }
%struct.SliceContext = type { ptr, ptr, ptr, ptr, ptr, ptr, ptr, ptr, ptr, ptr, ptr, ptr, ptr, ptr, ptr, ptr, ptr, ptr, ptr, [256 x %struct.PosPairCode], i32, ptr }
%struct.PosPairCode = type { double, i32, i32 }
%struct.FFFrameSync = type { ptr, ptr, i32, %struct.AVRational, i64, ptr, ptr, i32, i32, i8, i8, ptr, i32, i32, i32, i32 }
%struct.AVRational = type { i32, i32 }

@.str.33 = private unnamed_addr constant [57 x i8] c"Reference stream is mandatory in final estimation mode.\0A\00", align 1
@.str.34 = private unnamed_addr constant [60 x i8] c"bstep: %d can't be bigger than block size. Changing to %d.\0A\00", align 1
@.str.35 = private unnamed_addr constant [70 x i8] c"mstep: %d can't be bigger than block matching range. Changing to %d.\0A\00", align 1
@.str.36 = private unnamed_addr constant [7 x i8] c"source\00", align 1
@.str.37 = private unnamed_addr constant [10 x i8] c"reference\00", align 1

; Function Attrs: cold nounwind optsize uwtable
define internal i32 @init(ptr noundef %0) #0 {
  %2 = alloca i32, align 4
  %3 = alloca ptr, align 8
  %4 = alloca ptr, align 8
  %5 = alloca %struct.AVFilterPad, align 8
  %6 = alloca i32, align 4
  %7 = alloca i32, align 4
  store ptr %0, ptr %3, align 8, !tbaa !4
  call void @llvm.lifetime.start.p0(i64 8, ptr %4) #12
  %8 = load ptr, ptr %3, align 8, !tbaa !4
  %9 = getelementptr inbounds nuw %struct.AVFilterContext, ptr %8, i32 0, i32 9
  %10 = load ptr, ptr %9, align 8, !tbaa !9
  store ptr %10, ptr %4, align 8, !tbaa !22
  call void @llvm.lifetime.start.p0(i64 48, ptr %5) #12
  call void @llvm.memset.p0.i64(ptr align 8 %5, i8 0, i64 48, i1 false)
  call void @llvm.lifetime.start.p0(i64 4, ptr %6) #12
  %11 = load ptr, ptr %4, align 8, !tbaa !22
  %12 = getelementptr inbounds nuw %struct.BM3DContext, ptr %11, i32 0, i32 9
  %13 = load i32, ptr %12, align 8, !tbaa !24
  %14 = icmp eq i32 %13, 0
  br i1 %14, label %15, label %30

15:                                               ; preds = %1
  %16 = load ptr, ptr %4, align 8, !tbaa !22
  %17 = getelementptr inbounds nuw %struct.BM3DContext, ptr %16, i32 0, i32 7
  %18 = load float, ptr %17, align 8, !tbaa !31
  %19 = fcmp nsz oeq float %18, 0.000000e+00
  br i1 %19, label %20, label %27

20:                                               ; preds = %15
  %21 = load ptr, ptr %4, align 8, !tbaa !22
  %22 = getelementptr inbounds nuw %struct.BM3DContext, ptr %21, i32 0, i32 1
  %23 = load float, ptr %22, align 8, !tbaa !32
  %24 = call nsz float @llvm.fmuladd.f32(float %23, float 8.000000e+01, float 4.000000e+02)
  %25 = load ptr, ptr %4, align 8, !tbaa !22
  %26 = getelementptr inbounds nuw %struct.BM3DContext, ptr %25, i32 0, i32 7
  store float %24, ptr %26, align 8, !tbaa !31
  br label %27

27:                                               ; preds = %20, %15
  %28 = load ptr, ptr %4, align 8, !tbaa !22
  %29 = getelementptr inbounds nuw %struct.BM3DContext, ptr %28, i32 0, i32 25
  store ptr @basic_block_filtering, ptr %29, align 8, !tbaa !33
  br label %61

30:                                               ; preds = %1
  %31 = load ptr, ptr %4, align 8, !tbaa !22
  %32 = getelementptr inbounds nuw %struct.BM3DContext, ptr %31, i32 0, i32 9
  %33 = load i32, ptr %32, align 8, !tbaa !24
  %34 = icmp eq i32 %33, 1
  br i1 %34, label %35, label %59

35:                                               ; preds = %30
  %36 = load ptr, ptr %4, align 8, !tbaa !22
  %37 = getelementptr inbounds nuw %struct.BM3DContext, ptr %36, i32 0, i32 10
  %38 = load i32, ptr %37, align 4, !tbaa !34
  %39 = icmp ne i32 %38, 0
  br i1 %39, label %44, label %40

40:                                               ; preds = %35
  %41 = load ptr, ptr %3, align 8, !tbaa !4
  call void (ptr, i32, ptr, ...) @av_log(ptr noundef %41, i32 noundef 24, ptr noundef @.str.33)
  %42 = load ptr, ptr %4, align 8, !tbaa !22
  %43 = getelementptr inbounds nuw %struct.BM3DContext, ptr %42, i32 0, i32 10
  store i32 1, ptr %43, align 4, !tbaa !34
  br label %44

44:                                               ; preds = %40, %35
  %45 = load ptr, ptr %4, align 8, !tbaa !22
  %46 = getelementptr inbounds nuw %struct.BM3DContext, ptr %45, i32 0, i32 7
  %47 = load float, ptr %46, align 8, !tbaa !31
  %48 = fcmp nsz oeq float %47, 0.000000e+00
  br i1 %48, label %49, label %56

49:                                               ; preds = %44
  %50 = load ptr, ptr %4, align 8, !tbaa !22
  %51 = getelementptr inbounds nuw %struct.BM3DContext, ptr %50, i32 0, i32 1
  %52 = load float, ptr %51, align 8, !tbaa !32
  %53 = call nsz float @llvm.fmuladd.f32(float %52, float 1.000000e+01, float 2.000000e+02)
  %54 = load ptr, ptr %4, align 8, !tbaa !22
  %55 = getelementptr inbounds nuw %struct.BM3DContext, ptr %54, i32 0, i32 7
  store float %53, ptr %55, align 8, !tbaa !31
  br label %56

56:                                               ; preds = %49, %44
  %57 = load ptr, ptr %4, align 8, !tbaa !22
  %58 = getelementptr inbounds nuw %struct.BM3DContext, ptr %57, i32 0, i32 25
  store ptr @final_block_filtering, ptr %58, align 8, !tbaa !33
  br label %60

59:                                               ; preds = %30
  store i32 -558323010, ptr %2, align 4
  store i32 1, ptr %7, align 4
  br label %128

60:                                               ; preds = %56
  br label %61

61:                                               ; preds = %60, %27
  %62 = load ptr, ptr %4, align 8, !tbaa !22
  %63 = getelementptr inbounds nuw %struct.BM3DContext, ptr %62, i32 0, i32 3
  %64 = load i32, ptr %63, align 8, !tbaa !35
  %65 = load ptr, ptr %4, align 8, !tbaa !22
  %66 = getelementptr inbounds nuw %struct.BM3DContext, ptr %65, i32 0, i32 2
  %67 = load i32, ptr %66, align 4, !tbaa !36
  %68 = icmp sgt i32 %64, %67
  br i1 %68, label %69, label %82

69:                                               ; preds = %61
  %70 = load ptr, ptr %3, align 8, !tbaa !4
  %71 = load ptr, ptr %4, align 8, !tbaa !22
  %72 = getelementptr inbounds nuw %struct.BM3DContext, ptr %71, i32 0, i32 3
  %73 = load i32, ptr %72, align 8, !tbaa !35
  %74 = load ptr, ptr %4, align 8, !tbaa !22
  %75 = getelementptr inbounds nuw %struct.BM3DContext, ptr %74, i32 0, i32 2
  %76 = load i32, ptr %75, align 4, !tbaa !36
  call void (ptr, i32, ptr, ...) @av_log(ptr noundef %70, i32 noundef 24, ptr noundef @.str.34, i32 noundef %73, i32 noundef %76)
  %77 = load ptr, ptr %4, align 8, !tbaa !22
  %78 = getelementptr inbounds nuw %struct.BM3DContext, ptr %77, i32 0, i32 2
  %79 = load i32, ptr %78, align 4, !tbaa !36
  %80 = load ptr, ptr %4, align 8, !tbaa !22
  %81 = getelementptr inbounds nuw %struct.BM3DContext, ptr %80, i32 0, i32 3
  store i32 %79, ptr %81, align 8, !tbaa !35
  br label %82

82:                                               ; preds = %69, %61
  %83 = load ptr, ptr %4, align 8, !tbaa !22
  %84 = getelementptr inbounds nuw %struct.BM3DContext, ptr %83, i32 0, i32 6
  %85 = load i32, ptr %84, align 4, !tbaa !37
  %86 = load ptr, ptr %4, align 8, !tbaa !22
  %87 = getelementptr inbounds nuw %struct.BM3DContext, ptr %86, i32 0, i32 5
  %88 = load i32, ptr %87, align 8, !tbaa !38
  %89 = icmp sgt i32 %85, %88
  br i1 %89, label %90, label %103

90:                                               ; preds = %82
  %91 = load ptr, ptr %3, align 8, !tbaa !4
  %92 = load ptr, ptr %4, align 8, !tbaa !22
  %93 = getelementptr inbounds nuw %struct.BM3DContext, ptr %92, i32 0, i32 6
  %94 = load i32, ptr %93, align 4, !tbaa !37
  %95 = load ptr, ptr %4, align 8, !tbaa !22
  %96 = getelementptr inbounds nuw %struct.BM3DContext, ptr %95, i32 0, i32 5
  %97 = load i32, ptr %96, align 8, !tbaa !38
  call void (ptr, i32, ptr, ...) @av_log(ptr noundef %91, i32 noundef 24, ptr noundef @.str.35, i32 noundef %94, i32 noundef %97)
  %98 = load ptr, ptr %4, align 8, !tbaa !22
  %99 = getelementptr inbounds nuw %struct.BM3DContext, ptr %98, i32 0, i32 5
  %100 = load i32, ptr %99, align 8, !tbaa !38
  %101 = load ptr, ptr %4, align 8, !tbaa !22
  %102 = getelementptr inbounds nuw %struct.BM3DContext, ptr %101, i32 0, i32 6
  store i32 %100, ptr %102, align 4, !tbaa !37
  br label %103

103:                                              ; preds = %90, %82
  %104 = getelementptr inbounds nuw %struct.AVFilterPad, ptr %5, i32 0, i32 1
  store i32 0, ptr %104, align 8, !tbaa !39
  %105 = getelementptr inbounds nuw %struct.AVFilterPad, ptr %5, i32 0, i32 0
  store ptr @.str.36, ptr %105, align 8, !tbaa !41
  %106 = getelementptr inbounds nuw %struct.AVFilterPad, ptr %5, i32 0, i32 6
  store ptr @config_input, ptr %106, align 8, !tbaa !42
  %107 = load ptr, ptr %3, align 8, !tbaa !4
  %108 = call i32 @ff_append_inpad(ptr noundef %107, ptr noundef %5)
  store i32 %108, ptr %6, align 4, !tbaa !43
  %109 = icmp slt i32 %108, 0
  br i1 %109, label %110, label %112

110:                                              ; preds = %103
  %111 = load i32, ptr %6, align 4, !tbaa !43
  store i32 %111, ptr %2, align 4
  store i32 1, ptr %7, align 4
  br label %128

112:                                              ; preds = %103
  %113 = load ptr, ptr %4, align 8, !tbaa !22
  %114 = getelementptr inbounds nuw %struct.BM3DContext, ptr %113, i32 0, i32 10
  %115 = load i32, ptr %114, align 4, !tbaa !34
  %116 = icmp ne i32 %115, 0
  br i1 %116, label %117, label %127

117:                                              ; preds = %112
  %118 = getelementptr inbounds nuw %struct.AVFilterPad, ptr %5, i32 0, i32 1
  store i32 0, ptr %118, align 8, !tbaa !39
  %119 = getelementptr inbounds nuw %struct.AVFilterPad, ptr %5, i32 0, i32 0
  store ptr @.str.37, ptr %119, align 8, !tbaa !41
  %120 = getelementptr inbounds nuw %struct.AVFilterPad, ptr %5, i32 0, i32 6
  store ptr null, ptr %120, align 8, !tbaa !42
  %121 = load ptr, ptr %3, align 8, !tbaa !4
  %122 = call i32 @ff_append_inpad(ptr noundef %121, ptr noundef %5)
  store i32 %122, ptr %6, align 4, !tbaa !43
  %123 = icmp slt i32 %122, 0
  br i1 %123, label %124, label %126

124:                                              ; preds = %117
  %125 = load i32, ptr %6, align 4, !tbaa !43
  store i32 %125, ptr %2, align 4
  store i32 1, ptr %7, align 4
  br label %128

126:                                              ; preds = %117
  br label %127

127:                                              ; preds = %126, %112
  store i32 0, ptr %2, align 4
  store i32 1, ptr %7, align 4
  br label %128

128:                                              ; preds = %127, %124, %110, %59
  call void @llvm.lifetime.end.p0(i64 4, ptr %6) #12
  call void @llvm.lifetime.end.p0(i64 48, ptr %5) #12
  call void @llvm.lifetime.end.p0(i64 8, ptr %4) #12
  %129 = load i32, ptr %2, align 4
  ret i32 %129
}