; Function Attrs: cold nounwind optsize uwtable
define internal range(i32 -2147483648, 1) i32 @init(ptr noundef %0) #0 {
  %2 = alloca %struct.AVFilterPad, align 8
  %3 = getelementptr inbounds nuw i8, ptr %0, i64 72
  %4 = load ptr, ptr %3, align 8, !tbaa !4
  call void @llvm.lifetime.start.p0(i64 48, ptr nonnull %2) #15
  %5 = getelementptr inbounds nuw i8, ptr %2, i64 8
  call void @llvm.memset.p0.i64(ptr noundef nonnull align 8 dereferenceable(32) %5, i8 0, i64 32, i1 false)
  %6 = getelementptr inbounds nuw i8, ptr %4, i64 40
  %7 = load i32, ptr %6, align 8, !tbaa !20
  switch i32 %7, label %57 [
    i32 0, label %8
    i32 1, label %16
  ]

8:                                                ; preds = %1
  %9 = getelementptr inbounds nuw i8, ptr %4, i64 32
  %10 = load float, ptr %9, align 8, !tbaa !28
  %11 = fcmp nsz oeq float %10, 0.000000e+00
  br i1 %11, label %12, label %28

12:                                               ; preds = %8
  %13 = getelementptr inbounds nuw i8, ptr %4, i64 8
  %14 = load float, ptr %13, align 8, !tbaa !29
  %15 = tail call nsz float @llvm.fmuladd.f32(float %14, float 8.000000e+01, float 4.000000e+02)
  store float %15, ptr %9, align 8, !tbaa !28
  br label %28

16:                                               ; preds = %1
  %17 = getelementptr inbounds nuw i8, ptr %4, i64 44
  %18 = load i32, ptr %17, align 4, !tbaa !30
  %.not = icmp eq i32 %18, 0
  br i1 %.not, label %19, label %20

19:                                               ; preds = %16
  tail call void (ptr, i32, ptr, ...) @av_log(ptr noundef nonnull %0, i32 noundef 24, ptr noundef nonnull @.str.33) #15
  store i32 1, ptr %17, align 4, !tbaa !30
  br label %20

20:                                               ; preds = %19, %16
  %21 = getelementptr inbounds nuw i8, ptr %4, i64 32
  %22 = load float, ptr %21, align 8, !tbaa !28
  %23 = fcmp nsz oeq float %22, 0.000000e+00
  br i1 %23, label %24, label %28

24:                                               ; preds = %20
  %25 = getelementptr inbounds nuw i8, ptr %4, i64 8
  %26 = load float, ptr %25, align 8, !tbaa !29
  %27 = tail call nsz float @llvm.fmuladd.f32(float %26, float 1.000000e+01, float 2.000000e+02)
  store float %27, ptr %21, align 8, !tbaa !28
  br label %28

28:                                               ; preds = %20, %24, %8, %12
  %final_block_filtering.sink = phi ptr [ @basic_block_filtering, %12 ], [ @basic_block_filtering, %8 ], [ @final_block_filtering, %24 ], [ @final_block_filtering, %20 ]
  %29 = getelementptr inbounds nuw i8, ptr %4, i64 136680
  store ptr %final_block_filtering.sink, ptr %29, align 8, !tbaa !31
  %30 = getelementptr inbounds nuw i8, ptr %4, i64 16
  %31 = load i32, ptr %30, align 8, !tbaa !32
  %32 = getelementptr inbounds nuw i8, ptr %4, i64 12
  %33 = load i32, ptr %32, align 4, !tbaa !33
  %34 = icmp sgt i32 %31, %33
  br i1 %34, label %35, label %37

35:                                               ; preds = %28
  tail call void (ptr, i32, ptr, ...) @av_log(ptr noundef nonnull %0, i32 noundef 24, ptr noundef nonnull @.str.34, i32 noundef %31, i32 noundef %33) #15
  %36 = load i32, ptr %32, align 4, !tbaa !33
  store i32 %36, ptr %30, align 8, !tbaa !32
  br label %37

37:                                               ; preds = %35, %28
  %38 = getelementptr inbounds nuw i8, ptr %4, i64 28
  %39 = load i32, ptr %38, align 4, !tbaa !34
  %40 = getelementptr inbounds nuw i8, ptr %4, i64 24
  %41 = load i32, ptr %40, align 8, !tbaa !35
  %42 = icmp sgt i32 %39, %41
  br i1 %42, label %43, label %45

43:                                               ; preds = %37
  tail call void (ptr, i32, ptr, ...) @av_log(ptr noundef nonnull %0, i32 noundef 24, ptr noundef nonnull @.str.35, i32 noundef %39, i32 noundef %41) #15
  %44 = load i32, ptr %40, align 8, !tbaa !35
  store i32 %44, ptr %38, align 4, !tbaa !34
  br label %45

45:                                               ; preds = %43, %37
  %46 = getelementptr inbounds nuw i8, ptr %2, i64 8
  store i32 0, ptr %46, align 8, !tbaa !36
  store ptr @.str.36, ptr %2, align 8, !tbaa !38
  %47 = getelementptr inbounds nuw i8, ptr %2, i64 40
  store ptr @config_input, ptr %47, align 8, !tbaa !39
  %48 = call i32 @ff_append_inpad(ptr noundef nonnull %0, ptr noundef nonnull %2) #15
  %49 = icmp slt i32 %48, 0
  br i1 %49, label %57, label %50

50:                                               ; preds = %45
  %51 = getelementptr inbounds nuw i8, ptr %4, i64 44
  %52 = load i32, ptr %51, align 4, !tbaa !30
  %.not40 = icmp eq i32 %52, 0
  br i1 %.not40, label %56, label %53

53:                                               ; preds = %50
  store i32 0, ptr %46, align 8, !tbaa !36
  store ptr @.str.37, ptr %2, align 8, !tbaa !38
  store ptr null, ptr %47, align 8, !tbaa !39
  %54 = call i32 @ff_append_inpad(ptr noundef nonnull %0, ptr noundef nonnull %2) #15
  %55 = icmp slt i32 %54, 0
  br i1 %55, label %57, label %56

56:                                               ; preds = %53, %50
  br label %57

57:                                               ; preds = %53, %45, %1, %56
  %.0 = phi i32 [ 0, %56 ], [ -558323010, %1 ], [ %48, %45 ], [ %54, %53 ]
  call void @llvm.lifetime.end.p0(i64 48, ptr nonnull %2) #15
  ret i32 %.0
}